; Function Attrs: mustprogress uwtable
define internal noundef ptr @_ZNK7testing8internal26CartesianProductGenerator2IN4perf12_GLOBAL__N_18MatDepthEiE8Iterator5CloneEv(ptr nocapture noundef nonnull readonly align 8 dereferenceable(80) %0) unnamed_addr #3 align 2 personality ptr @__gxx_personality_v0 {
  %2 = tail call noalias noundef nonnull dereferenceable(80) ptr @_Znwm(i64 noundef 80) #28
  store ptr getelementptr inbounds inrange(-16, 56) (i8, ptr @_ZTVN7testing8internal26CartesianProductGenerator2IN4perf12_GLOBAL__N_18MatDepthEiE8IteratorE, i64 16), ptr %2, align 8
  %3 = getelementptr inbounds i8, ptr %2, i64 8
  %4 = getelementptr inbounds i8, ptr %0, i64 8
  %5 = load ptr, ptr %4, align 8
  store ptr %5, ptr %3, align 8
  %6 = getelementptr inbounds i8, ptr %2, i64 16
  %7 = getelementptr inbounds i8, ptr %0, i64 16
  %.val24.i = load ptr, ptr %7, align 8
  %8 = load ptr, ptr %.val24.i, align 8
  %9 = getelementptr inbounds i8, ptr %8, i64 32
  %10 = load ptr, ptr %9, align 8
  %11 = invoke noundef ptr %10(ptr noundef nonnull align 8 dereferenceable(8) %.val24.i)
          to label %.noexc unwind label %69

.noexc:                                           ; preds = %1
  store ptr %11, ptr %6, align 8
  %12 = getelementptr inbounds i8, ptr %2, i64 24
  %13 = getelementptr inbounds i8, ptr %0, i64 24
  %.val23.i = load ptr, ptr %13, align 8
  %14 = load ptr, ptr %.val23.i, align 8
  %15 = getelementptr inbounds i8, ptr %14, i64 32
  %16 = load ptr, ptr %15, align 8
  %17 = invoke noundef ptr %16(ptr noundef nonnull align 8 dereferenceable(8) %.val23.i)
          to label %18 unwind label %52

18:                                               ; preds = %.noexc
  store ptr %17, ptr %12, align 8
  %19 = getelementptr inbounds i8, ptr %2, i64 32
  %20 = getelementptr inbounds i8, ptr %0, i64 32
  %.val.i = load ptr, ptr %20, align 8
  %21 = load ptr, ptr %.val.i, align 8
  %22 = getelementptr inbounds i8, ptr %21, i64 32
  %23 = load ptr, ptr %22, align 8
  %24 = invoke noundef ptr %23(ptr noundef nonnull align 8 dereferenceable(8) %.val.i)
          to label %25 unwind label %54

25:                                               ; preds = %18
  store ptr %24, ptr %19, align 8
  %26 = getelementptr inbounds i8, ptr %2, i64 40
  %27 = getelementptr inbounds i8, ptr %0, i64 40
  %28 = load ptr, ptr %27, align 8
  %29 = load ptr, ptr %28, align 8
  %30 = getelementptr inbounds i8, ptr %29, i64 32
  %31 = load ptr, ptr %30, align 8
  %32 = invoke noundef ptr %31(ptr noundef nonnull align 8 dereferenceable(8) %28)
          to label %33 unwind label %56

33:                                               ; preds = %25
  store ptr %32, ptr %26, align 8
  %34 = getelementptr inbounds i8, ptr %2, i64 48
  %35 = getelementptr inbounds i8, ptr %0, i64 48
  %36 = load ptr, ptr %35, align 8
  %37 = load ptr, ptr %36, align 8
  %38 = getelementptr inbounds i8, ptr %37, i64 32
  %39 = load ptr, ptr %38, align 8
  %40 = invoke noundef ptr %39(ptr noundef nonnull align 8 dereferenceable(8) %36)
          to label %41 unwind label %58

41:                                               ; preds = %33
  store ptr %40, ptr %34, align 8
  %42 = getelementptr inbounds i8, ptr %2, i64 56
  %43 = getelementptr inbounds i8, ptr %0, i64 56
  %44 = load ptr, ptr %43, align 8
  %45 = load ptr, ptr %44, align 8
  %46 = getelementptr inbounds i8, ptr %45, i64 32
  %47 = load ptr, ptr %46, align 8
  %48 = invoke noundef ptr %47(ptr noundef nonnull align 8 dereferenceable(8) %44)
          to label %49 unwind label %60

49:                                               ; preds = %41
  store ptr %48, ptr %42, align 8
  %50 = getelementptr inbounds i8, ptr %2, i64 64
  store ptr null, ptr %50, align 8
  %51 = getelementptr inbounds i8, ptr %2, i64 72
  store ptr %51, ptr %51, align 8
  invoke fastcc void @_ZN7testing8internal26CartesianProductGenerator2IN4perf12_GLOBAL__N_18MatDepthEiE8Iterator19ComputeCurrentValueEv(ptr noundef nonnull align 8 dereferenceable(80) %2)
          to label %_ZN7testing8internal26CartesianProductGenerator2IN4perf12_GLOBAL__N_18MatDepthEiE8IteratorC2ERKS6_.exit unwind label %62

52:                                               ; preds = %.noexc
  %53 = landingpad { ptr, i32 }
          cleanup
  br label %68

54:                                               ; preds = %18
  %55 = landingpad { ptr, i32 }
          cleanup
  br label %67

56:                                               ; preds = %25
  %57 = landingpad { ptr, i32 }
          cleanup
  br label %66

58:                                               ; preds = %33
  %59 = landingpad { ptr, i32 }
          cleanup
  br label %65

60:                                               ; preds = %41
  %61 = landingpad { ptr, i32 }
          cleanup
  br label %64

62:                                               ; preds = %49
  %63 = landingpad { ptr, i32 }
          cleanup
  tail call fastcc void @_ZN7testing8internal10linked_ptrISt5tupleIJN4perf12_GLOBAL__N_18MatDepthEiEEED2Ev(ptr noundef nonnull align 8 dereferenceable(16) %50) #25
  tail call void @_ZN7testing8internal13ParamIteratorIiED2Ev(ptr noundef nonnull align 8 dereferenceable(8) %42) #25
  br label %64

64:                                               ; preds = %62, %60
  %.pn.pn.i = phi { ptr, i32 } [ %63, %62 ], [ %61, %60 ]
  tail call void @_ZN7testing8internal13ParamIteratorIiED2Ev(ptr noundef nonnull align 8 dereferenceable(8) %34) #25
  br label %65

65:                                               ; preds = %64, %58
  %.pn.pn.pn.i = phi { ptr, i32 } [ %.pn.pn.i, %64 ], [ %59, %58 ]
  tail call void @_ZN7testing8internal13ParamIteratorIiED2Ev(ptr noundef nonnull align 8 dereferenceable(8) %26) #25
  br label %66

66:                                               ; preds = %65, %56
  %.pn.pn.pn.pn.i = phi { ptr, i32 } [ %.pn.pn.pn.i, %65 ], [ %57, %56 ]
  tail call fastcc void @_ZN7testing8internal13ParamIteratorIN4perf12_GLOBAL__N_18MatDepthEED2Ev(ptr noundef nonnull align 8 dereferenceable(8) %19) #25
  br label %67

67:                                               ; preds = %66, %54
  %.pn.pn.pn.pn.pn.i = phi { ptr, i32 } [ %.pn.pn.pn.pn.i, %66 ], [ %55, %54 ]
  tail call fastcc void @_ZN7testing8internal13ParamIteratorIN4perf12_GLOBAL__N_18MatDepthEED2Ev(ptr noundef nonnull align 8 dereferenceable(8) %12) #25
  br label %68

68:                                               ; preds = %67, %52
  %.pn.pn.pn.pn.pn.pn.i = phi { ptr, i32 } [ %.pn.pn.pn.pn.pn.i, %67 ], [ %53, %52 ]
  tail call fastcc void @_ZN7testing8internal13ParamIteratorIN4perf12_GLOBAL__N_18MatDepthEED2Ev(ptr noundef nonnull align 8 dereferenceable(8) %6) #25
  br label %.body

_ZN7testing8internal26CartesianProductGenerator2IN4perf12_GLOBAL__N_18MatDepthEiE8IteratorC2ERKS6_.exit: ; preds = %49
  ret ptr %2

69:                                               ; preds = %1
  %70 = landingpad { ptr, i32 }
          cleanup
  br label %.body

.body:                                            ; preds = %68, %69
  %eh.lpad-body = phi { ptr, i32 } [ %70, %69 ], [ %.pn.pn.pn.pn.pn.pn.i, %68 ]
  tail call void @_ZdlPv(ptr noundef nonnull %2) #29
  resume { ptr, i32 } %eh.lpad-body
}